target datalayout = "e-m:e-p270:32:32-p271:32:32-p272:64:64-i64:64-i128:128-f80:128-n8:16:32:64-S128"
target triple = "x86_64-pc-linux-gnu"

@hf_mikey = internal global [71 x i32] zeroinitializer, align 16

; Function Attrs: null_pointer_is_valid sspstrong uwtable
define internal i32 @dissect_payload_sakke(ptr noundef %0, ptr noundef %1, ptr noundef %2, ptr noundef %3) #0 {
  %5 = alloca ptr, align 8
  %6 = alloca ptr, align 8
  %7 = alloca ptr, align 8
  %8 = alloca ptr, align 8
  %9 = alloca i32, align 4
  %10 = alloca i16, align 2
  store ptr %0, ptr %5, align 8
  store ptr %1, ptr %6, align 8
  store ptr %2, ptr %7, align 8
  store ptr %3, ptr %8, align 8
  call void @llvm.lifetime.start.p0(i64 4, ptr %9) #5
  store i32 0, ptr %9, align 4
  call void @llvm.lifetime.start.p0(i64 2, ptr %10) #5
  %11 = load ptr, ptr %6, align 8
  %12 = load i32, ptr %9, align 4
  %13 = add i32 %12, 3
  %14 = call zeroext i16 @tvb_get_ntohs(ptr noundef %11, i32 noundef %13)
  store i16 %14, ptr %10, align 2
  %15 = load ptr, ptr %8, align 8
  %16 = icmp ne ptr %15, null
  br i1 %16, label %17, label %30

17:                                               ; preds = %4
  %18 = load ptr, ptr %8, align 8
  %19 = load i32, ptr getelementptr ([71 x i32], ptr @hf_mikey, i64 0, i64 64), align 16
  %20 = load ptr, ptr %6, align 8
  %21 = call ptr @proto_tree_add_item(ptr noundef %18, i32 noundef %19, ptr noundef %20, i32 noundef 1, i32 noundef 1, i32 noundef 0)
  %22 = load ptr, ptr %8, align 8
  %23 = load i32, ptr getelementptr ([71 x i32], ptr @hf_mikey, i64 0, i64 65), align 4
  %24 = load ptr, ptr %6, align 8
  %25 = call ptr @proto_tree_add_item(ptr noundef %22, i32 noundef %23, ptr noundef %24, i32 noundef 2, i32 noundef 1, i32 noundef 0)
  %26 = load ptr, ptr %8, align 8
  %27 = load i32, ptr getelementptr ([71 x i32], ptr @hf_mikey, i64 0, i64 66), align 8
  %28 = load ptr, ptr %6, align 8
  %29 = call ptr @proto_tree_add_item(ptr noundef %26, i32 noundef %27, ptr noundef %28, i32 noundef 3, i32 noundef 2, i32 noundef 0)
  br label %30

30:                                               ; preds = %17, %4
  %31 = load ptr, ptr %8, align 8
  %32 = load i32, ptr getelementptr ([71 x i32], ptr @hf_mikey, i64 0, i64 67), align 4
  %33 = load ptr, ptr %6, align 8
  %34 = load i16, ptr %10, align 2
  %35 = zext i16 %34 to i32
  %36 = call ptr @proto_tree_add_item(ptr noundef %31, i32 noundef %32, ptr noundef %33, i32 noundef 5, i32 noundef %35, i32 noundef 0)
  %37 = load i16, ptr %10, align 2
  %38 = zext i16 %37 to i32
  %39 = add i32 5, %38
  call void @llvm.lifetime.end.p0(i64 2, ptr %10) #5
  call void @llvm.lifetime.end.p0(i64 4, ptr %9) #5
  ret i32 %39
}