; Function Attrs: null_pointer_is_valid sspstrong uwtable
define internal range(i32 5, 65541) i32 @dissect_payload_sakke(ptr readnone captures(none) %0, ptr noundef %1, ptr readnone captures(none) %2, ptr noundef %3) #0 {
  %5 = tail call zeroext i16 @tvb_get_ntohs(ptr noundef %1, i32 noundef 3)
  %.not = icmp eq ptr %3, null
  br i1 %.not, label %13, label %6

6:                                                ; preds = %4
  %7 = load i32, ptr getelementptr inbounds nuw (i8, ptr @hf_mikey, i64 256), align 16
  %8 = tail call ptr @proto_tree_add_item(ptr noundef nonnull %3, i32 noundef %7, ptr noundef %1, i32 noundef 1, i32 noundef 1, i32 noundef 0)
  %9 = load i32, ptr getelementptr inbounds nuw (i8, ptr @hf_mikey, i64 260), align 4
  %10 = tail call ptr @proto_tree_add_item(ptr noundef nonnull %3, i32 noundef %9, ptr noundef %1, i32 noundef 2, i32 noundef 1, i32 noundef 0)
  %11 = load i32, ptr getelementptr inbounds nuw (i8, ptr @hf_mikey, i64 264), align 8
  %12 = tail call ptr @proto_tree_add_item(ptr noundef nonnull %3, i32 noundef %11, ptr noundef %1, i32 noundef 3, i32 noundef 2, i32 noundef 0)
  br label %13

13:                                               ; preds = %6, %4
  %14 = load i32, ptr getelementptr inbounds nuw (i8, ptr @hf_mikey, i64 268), align 4
  %15 = zext i16 %5 to i32
  %16 = tail call ptr @proto_tree_add_item(ptr noundef %3, i32 noundef %14, ptr noundef %1, i32 noundef 5, i32 noundef %15, i32 noundef 0)
  %17 = add nuw nsw i32 %15, 5
  ret i32 %17
}